target datalayout = "e-m:e-p270:32:32-p271:32:32-p272:64:64-i64:64-i128:128-f80:128-n8:16:32:64-S128"
target triple = "x86_64-pc-linux-gnu"

%struct.RString = type { %struct.RBasic, i64, %union.anon }
%struct.RBasic = type { i64, i64 }
%union.anon = type { %struct.anon }
%struct.anon = type { ptr, %union.anon.0 }
%union.anon.0 = type { i64 }
%struct.anon.1 = type { [1 x i8] }

@rb_eArgError = external global i64, align 8
@.str.7 = private unnamed_addr constant [21 x i8] c"negative length: %ld\00", align 1
@rb_eIndexError = external global i64, align 8
@.str.8 = private unnamed_addr constant [9 x i8] c"beg: %ld\00", align 1
@.str.9 = private unnamed_addr constant [9 x i8] c"end: %ld\00", align 1

; Function Attrs: inlinehint nounwind sspstrong willreturn memory(none) uwtable
define internal i64 @rbimpl_fix2long_by_idiv(i64 noundef %0) #5 {
  %2 = alloca i64, align 8
  %3 = alloca i64, align 8
  %4 = alloca i64, align 8
  %5 = alloca i64, align 8
  store i64 %0, ptr %2, align 8, !tbaa !6
  call void @llvm.lifetime.start.p0(i64 8, ptr %3) #19
  %6 = load i64, ptr %2, align 8, !tbaa !6
  %7 = sub i64 %6, 1
  store i64 %7, ptr %3, align 8, !tbaa !6
  call void @llvm.lifetime.start.p0(i64 8, ptr %4) #19
  %8 = load i64, ptr %3, align 8, !tbaa !6
  %9 = sdiv i64 %8, 2
  store i64 %9, ptr %4, align 8, !tbaa !6
  call void @llvm.lifetime.start.p0(i64 8, ptr %5) #19
  %10 = load i64, ptr %4, align 8, !tbaa !6
  store i64 %10, ptr %5, align 8, !tbaa !6
  %11 = load i64, ptr %5, align 8, !tbaa !6
  call void @llvm.lifetime.end.p0(i64 8, ptr %5) #19
  call void @llvm.lifetime.end.p0(i64 8, ptr %4) #19
  call void @llvm.lifetime.end.p0(i64 8, ptr %3) #19
  ret i64 %11
}

; Function Attrs: inlinehint nounwind sspstrong willreturn memory(none) uwtable
define internal i64 @rbimpl_fix2long_by_shift(i64 noundef %0) #5 {
  %2 = alloca i64, align 8
  %3 = alloca i64, align 8
  %4 = alloca i64, align 8
  %5 = alloca i64, align 8
  store i64 %0, ptr %2, align 8, !tbaa !6
  call void @llvm.lifetime.start.p0(i64 8, ptr %3) #19
  %6 = load i64, ptr %2, align 8, !tbaa !6
  store i64 %6, ptr %3, align 8, !tbaa !6
  call void @llvm.lifetime.start.p0(i64 8, ptr %4) #19
  %7 = load i64, ptr %3, align 8, !tbaa !6
  %8 = ashr i64 %7, 1
  store i64 %8, ptr %4, align 8, !tbaa !6
  call void @llvm.lifetime.start.p0(i64 8, ptr %5) #19
  %9 = load i64, ptr %4, align 8, !tbaa !6
  store i64 %9, ptr %5, align 8, !tbaa !6
  %10 = load i64, ptr %5, align 8, !tbaa !6
  call void @llvm.lifetime.end.p0(i64 8, ptr %5) #19
  call void @llvm.lifetime.end.p0(i64 8, ptr %4) #19
  call void @llvm.lifetime.end.p0(i64 8, ptr %3) #19
  ret i64 %10
}

; Function Attrs: inlinehint nounwind sspstrong willreturn memory(none) uwtable
define internal zeroext i1 @rbimpl_right_shift_is_arithmetic_p() #5 {
  ret i1 true
}

; Function Attrs: inlinehint nounwind sspstrong willreturn memory(read) uwtable
define internal i64 @RB_FL_TEST_RAW(i64 noundef %0, i64 noundef %1) #3 {
  %3 = alloca i64, align 8
  %4 = alloca i64, align 8
  store i64 %0, ptr %3, align 8, !tbaa !6
  store i64 %1, ptr %4, align 8, !tbaa !6
  %5 = load i64, ptr %3, align 8, !tbaa !6
  %6 = inttoptr i64 %5 to ptr
  %7 = getelementptr inbounds nuw %struct.RBasic, ptr %6, i32 0, i32 0
  %8 = load i64, ptr %7, align 8, !tbaa !21
  %9 = load i64, ptr %4, align 8, !tbaa !6
  %10 = and i64 %8, %9
  ret i64 %10
}

; Function Attrs: inlinehint nounwind sspstrong willreturn memory(none) uwtable
define internal i64 @rb_fix2long(i64 noundef %0) #5 {
  %2 = alloca i64, align 8
  %3 = alloca i64, align 8
  store i64 %0, ptr %3, align 8, !tbaa !6
  %4 = call zeroext i1 @rbimpl_right_shift_is_arithmetic_p() #25
  br i1 %4, label %5, label %8

5:                                                ; preds = %1
  %6 = load i64, ptr %3, align 8, !tbaa !6
  %7 = call i64 @rbimpl_fix2long_by_shift(i64 noundef %6) #25
  store i64 %7, ptr %2, align 8
  br label %11

8:                                                ; preds = %1
  %9 = load i64, ptr %3, align 8, !tbaa !6
  %10 = call i64 @rbimpl_fix2long_by_idiv(i64 noundef %9) #25
  store i64 %10, ptr %2, align 8
  br label %11

11:                                               ; preds = %8, %5
  %12 = load i64, ptr %2, align 8
  ret i64 %12
}

; Function Attrs: inlinehint nounwind sspstrong willreturn memory(none) uwtable
define internal zeroext i1 @RB_FIXNUM_P(i64 noundef %0) #5 {
  %2 = alloca i64, align 8
  store i64 %0, ptr %2, align 8, !tbaa !6
  %3 = load i64, ptr %2, align 8, !tbaa !6
  %4 = and i64 %3, 1
  %5 = icmp ne i64 %4, 0
  ret i1 %5
}

; Function Attrs: alwaysinline nounwind
define internal ptr @memmove.inline(ptr nonnull %0, ptr nonnull %1, i64 %2) #12 {
  %4 = alloca ptr, align 8
  %5 = alloca ptr, align 8
  %6 = alloca i64, align 8
  store ptr %0, ptr %4, align 8, !tbaa !26
  store ptr %1, ptr %5, align 8, !tbaa !26
  store i64 %2, ptr %6, align 8, !tbaa !6
  %7 = load ptr, ptr %4, align 8, !tbaa !26
  %8 = load ptr, ptr %5, align 8, !tbaa !26
  %9 = load i64, ptr %6, align 8, !tbaa !6
  %10 = load ptr, ptr %4, align 8, !tbaa !26
  %11 = call i64 @llvm.objectsize.i64.p0(ptr %10, i1 false, i1 true, i1 false)
  %12 = call ptr @__memmove_chk(ptr noundef %7, ptr noundef %8, i64 noundef %9, i64 noundef %11) #19
  ret ptr %12
}

; Function Attrs: inlinehint nounwind sspstrong uwtable
define internal zeroext i1 @STR_EMBED_P(i64 noundef %0) #4 {
  %2 = alloca i64, align 8
  store i64 %0, ptr %2, align 8, !tbaa !6
  %3 = load i64, ptr %2, align 8, !tbaa !6
  %4 = call i64 @RB_FL_TEST_RAW(i64 noundef %3, i64 noundef 8192) #20
  %5 = icmp ne i64 %4, 0
  %6 = xor i1 %5, true
  ret i1 %6
}

; Function Attrs: inlinehint nounwind sspstrong willreturn memory(read) uwtable
define internal i64 @RSTRING_LEN(i64 noundef %0) #3 {
  %2 = alloca i64, align 8
  store i64 %0, ptr %2, align 8, !tbaa !6
  %3 = load i64, ptr %2, align 8, !tbaa !6
  %4 = inttoptr i64 %3 to ptr
  %5 = getelementptr inbounds nuw %struct.RString, ptr %4, i32 0, i32 1
  %6 = load i64, ptr %5, align 8, !tbaa !18
  ret i64 %6
}

; Function Attrs: inlinehint nounwind sspstrong uwtable
define internal i64 @rb_num2long_inline(i64 noundef %0) #4 {
  %2 = alloca i64, align 8
  %3 = alloca i64, align 8
  store i64 %0, ptr %3, align 8, !tbaa !6
  %4 = load i64, ptr %3, align 8, !tbaa !6
  %5 = call zeroext i1 @RB_FIXNUM_P(i64 noundef %4) #25
  br i1 %5, label %6, label %9

6:                                                ; preds = %1
  %7 = load i64, ptr %3, align 8, !tbaa !6
  %8 = call i64 @rb_fix2long(i64 noundef %7) #25
  store i64 %8, ptr %2, align 8
  br label %12

9:                                                ; preds = %1
  %10 = load i64, ptr %3, align 8, !tbaa !6
  %11 = call i64 @rb_num2long(i64 noundef %10)
  store i64 %11, ptr %2, align 8
  br label %12

12:                                               ; preds = %9, %6
  %13 = load i64, ptr %2, align 8
  ret i64 %13
}

; Function Attrs: nounwind sspstrong uwtable
define internal i64 @bug_str_unterminated_substring(i64 noundef %0, i64 noundef %1, i64 noundef %2) #0 {
  %4 = alloca i64, align 8
  %5 = alloca i64, align 8
  %6 = alloca i64, align 8
  %7 = alloca i64, align 8
  %8 = alloca i64, align 8
  store i64 %0, ptr %4, align 8, !tbaa !6
  store i64 %1, ptr %5, align 8, !tbaa !6
  store i64 %2, ptr %6, align 8, !tbaa !6
  call void @llvm.lifetime.start.p0(i64 8, ptr %7) #19
  %9 = load i64, ptr %5, align 8, !tbaa !6
  %10 = call i64 @rb_num2long_inline(i64 noundef %9)
  store i64 %10, ptr %7, align 8, !tbaa !6
  call void @llvm.lifetime.start.p0(i64 8, ptr %8) #19
  %11 = load i64, ptr %6, align 8, !tbaa !6
  %12 = call i64 @rb_num2long_inline(i64 noundef %11)
  store i64 %12, ptr %8, align 8, !tbaa !6
  %13 = load i64, ptr %4, align 8, !tbaa !6
  call void @rb_str_modify(i64 noundef %13)
  %14 = load i64, ptr %8, align 8, !tbaa !6
  %15 = icmp slt i64 %14, 0
  br i1 %15, label %16, label %19

16:                                               ; preds = %3
  %17 = load i64, ptr @rb_eArgError, align 8, !tbaa !6
  %18 = load i64, ptr %8, align 8, !tbaa !6
  call void (i64, ptr, ...) @rb_raise(i64 noundef %17, ptr noundef @.str.7, i64 noundef %18) #22
  unreachable

19:                                               ; preds = %3
  %20 = load i64, ptr %4, align 8, !tbaa !6
  %21 = call i64 @RSTRING_LEN(i64 noundef %20) #20
  %22 = load i64, ptr %7, align 8, !tbaa !6
  %23 = icmp slt i64 %21, %22
  br i1 %23, label %24, label %27

24:                                               ; preds = %19
  %25 = load i64, ptr @rb_eIndexError, align 8, !tbaa !6
  %26 = load i64, ptr %7, align 8, !tbaa !6
  call void (i64, ptr, ...) @rb_raise(i64 noundef %25, ptr noundef @.str.8, i64 noundef %26) #22
  unreachable

27:                                               ; preds = %19
  %28 = load i64, ptr %4, align 8, !tbaa !6
  %29 = call i64 @RSTRING_LEN(i64 noundef %28) #20
  %30 = load i64, ptr %7, align 8, !tbaa !6
  %31 = load i64, ptr %8, align 8, !tbaa !6
  %32 = add nsw i64 %30, %31
  %33 = icmp slt i64 %29, %32
  br i1 %33, label %34, label %39

34:                                               ; preds = %27
  %35 = load i64, ptr @rb_eIndexError, align 8, !tbaa !6
  %36 = load i64, ptr %7, align 8, !tbaa !6
  %37 = load i64, ptr %8, align 8, !tbaa !6
  %38 = add nsw i64 %36, %37
  call void (i64, ptr, ...) @rb_raise(i64 noundef %35, ptr noundef @.str.9, i64 noundef %38) #22
  unreachable

39:                                               ; preds = %27
  %40 = load i64, ptr %4, align 8, !tbaa !6
  %41 = call i64 @rb_str_new_shared(i64 noundef %40)
  store i64 %41, ptr %4, align 8, !tbaa !6
  %42 = load i64, ptr %8, align 8, !tbaa !6
  %43 = load i64, ptr %4, align 8, !tbaa !6
  %44 = inttoptr i64 %43 to ptr
  %45 = getelementptr inbounds nuw %struct.RString, ptr %44, i32 0, i32 1
  store i64 %42, ptr %45, align 8, !tbaa !18
  %46 = load i64, ptr %4, align 8, !tbaa !6
  %47 = call zeroext i1 @STR_EMBED_P(i64 noundef %46)
  br i1 %47, label %48, label %63

48:                                               ; preds = %39
  %49 = load i64, ptr %4, align 8, !tbaa !6
  %50 = inttoptr i64 %49 to ptr
  %51 = getelementptr inbounds nuw %struct.RString, ptr %50, i32 0, i32 2
  %52 = getelementptr inbounds nuw %struct.anon.1, ptr %51, i32 0, i32 0
  %53 = getelementptr inbounds [1 x i8], ptr %52, i64 0, i64 0
  %54 = load i64, ptr %4, align 8, !tbaa !6
  %55 = inttoptr i64 %54 to ptr
  %56 = getelementptr inbounds nuw %struct.RString, ptr %55, i32 0, i32 2
  %57 = getelementptr inbounds nuw %struct.anon.1, ptr %56, i32 0, i32 0
  %58 = getelementptr inbounds [1 x i8], ptr %57, i64 0, i64 0
  %59 = load i64, ptr %7, align 8, !tbaa !6
  %60 = getelementptr inbounds i8, ptr %58, i64 %59
  %61 = load i64, ptr %8, align 8, !tbaa !6
  %62 = call ptr @memmove.inline(ptr noundef %53, ptr noundef %60, i64 noundef %61) #19
  br label %71

63:                                               ; preds = %39
  %64 = load i64, ptr %7, align 8, !tbaa !6
  %65 = load i64, ptr %4, align 8, !tbaa !6
  %66 = inttoptr i64 %65 to ptr
  %67 = getelementptr inbounds nuw %struct.RString, ptr %66, i32 0, i32 2
  %68 = getelementptr inbounds nuw %struct.anon, ptr %67, i32 0, i32 0
  %69 = load ptr, ptr %68, align 8, !tbaa !17
  %70 = getelementptr inbounds i8, ptr %69, i64 %64
  store ptr %70, ptr %68, align 8, !tbaa !17
  br label %71

71:                                               ; preds = %63, %48
  %72 = load i64, ptr %4, align 8, !tbaa !6
  call void @llvm.lifetime.end.p0(i64 8, ptr %8) #19
  call void @llvm.lifetime.end.p0(i64 8, ptr %7) #19
  ret i64 %72
}