; Function Attrs: nounwind sspstrong uwtable
define internal i64 @bug_str_unterminated_substring(i64 noundef %0, i64 noundef %1, i64 noundef %2) #0 {
  %4 = and i64 %1, 1
  %.not.i = icmp eq i64 %4, 0
  br i1 %.not.i, label %7, label %5

5:                                                ; preds = %3
  %6 = ashr i64 %1, 1
  br label %rb_num2long_inline.exit

7:                                                ; preds = %3
  %8 = tail call i64 @rb_num2long(i64 noundef %1) #9
  br label %rb_num2long_inline.exit

rb_num2long_inline.exit:                          ; preds = %5, %7
  %.0.i = phi i64 [ %6, %5 ], [ %8, %7 ]
  %9 = and i64 %2, 1
  %.not.i28 = icmp eq i64 %9, 0
  br i1 %.not.i28, label %12, label %10

10:                                               ; preds = %rb_num2long_inline.exit
  %11 = ashr i64 %2, 1
  br label %rb_num2long_inline.exit30

12:                                               ; preds = %rb_num2long_inline.exit
  %13 = tail call i64 @rb_num2long(i64 noundef %2) #9
  br label %rb_num2long_inline.exit30

rb_num2long_inline.exit30:                        ; preds = %10, %12
  %.0.i29 = phi i64 [ %11, %10 ], [ %13, %12 ]
  tail call void @rb_str_modify(i64 noundef %0) #9
  %14 = icmp slt i64 %.0.i29, 0
  br i1 %14, label %15, label %17

15:                                               ; preds = %rb_num2long_inline.exit30
  %16 = load i64, ptr @rb_eArgError, align 8, !tbaa !6
  tail call void (i64, ptr, ...) @rb_raise(i64 noundef %16, ptr noundef nonnull @.str.7, i64 noundef %.0.i29) #10
  unreachable

17:                                               ; preds = %rb_num2long_inline.exit30
  %18 = inttoptr i64 %0 to ptr
  %19 = getelementptr inbounds nuw i8, ptr %18, i64 16
  %20 = load i64, ptr %19, align 8, !tbaa !10
  %21 = icmp slt i64 %20, %.0.i
  br i1 %21, label %22, label %24

22:                                               ; preds = %17
  %23 = load i64, ptr @rb_eIndexError, align 8, !tbaa !6
  tail call void (i64, ptr, ...) @rb_raise(i64 noundef %23, ptr noundef nonnull @.str.8, i64 noundef %.0.i) #10
  unreachable

24:                                               ; preds = %17
  %25 = add nsw i64 %.0.i29, %.0.i
  %26 = icmp slt i64 %20, %25
  br i1 %26, label %27, label %29

27:                                               ; preds = %24
  %28 = load i64, ptr @rb_eIndexError, align 8, !tbaa !6
  tail call void (i64, ptr, ...) @rb_raise(i64 noundef %28, ptr noundef nonnull @.str.9, i64 noundef %25) #10
  unreachable

29:                                               ; preds = %24
  %30 = tail call i64 @rb_str_new_shared(i64 noundef %0) #9
  %31 = inttoptr i64 %30 to ptr
  %32 = getelementptr inbounds nuw i8, ptr %31, i64 16
  store i64 %.0.i29, ptr %32, align 8, !tbaa !10
  %33 = load i64, ptr %31, align 8, !tbaa !18
  %34 = and i64 %33, 8192
  %.not.i31 = icmp eq i64 %34, 0
  %35 = getelementptr inbounds nuw i8, ptr %31, i64 24
  br i1 %.not.i31, label %36, label %38

36:                                               ; preds = %29
  %37 = getelementptr inbounds i8, ptr %35, i64 %.0.i
  tail call void @llvm.memmove.p0.p0.i64(ptr noundef nonnull align 1 %35, ptr noundef nonnull align 1 %37, i64 noundef range(i64 0, -9223372036854775808) %.0.i29, i1 noundef false) #9
  br label %41

38:                                               ; preds = %29
  %39 = load ptr, ptr %35, align 8, !tbaa !19
  %40 = getelementptr inbounds i8, ptr %39, i64 %.0.i
  store ptr %40, ptr %35, align 8, !tbaa !19
  br label %41

41:                                               ; preds = %38, %36
  ret i64 %30
}